target datalayout = "e-m:e-p270:32:32-p271:32:32-p272:64:64-i64:64-i128:128-f80:128-n8:16:32:64-S128"
target triple = "x86_64-pc-linux-gnu"

; Function Attrs: nounwind uwtable
define void @ff_ivi_put_dc_pixel_8x8(ptr noundef %0, ptr noundef %1, i64 noundef %2, i32 noundef %3) #0 {
  %5 = alloca ptr, align 8
  %6 = alloca ptr, align 8
  %7 = alloca i64, align 8
  %8 = alloca i32, align 4
  %9 = alloca i32, align 4
  store ptr %0, ptr %5, align 8, !tbaa !40
  store ptr %1, ptr %6, align 8, !tbaa !30
  store i64 %2, ptr %7, align 8, !tbaa !11
  store i32 %3, ptr %8, align 4, !tbaa !13
  call void @llvm.lifetime.start.p0(i64 4, ptr %9) #4
  %10 = load ptr, ptr %5, align 8, !tbaa !40
  %11 = getelementptr inbounds i32, ptr %10, i64 0
  %12 = load i32, ptr %11, align 4, !tbaa !13
  %13 = trunc i32 %12 to i16
  %14 = load ptr, ptr %6, align 8, !tbaa !30
  %15 = getelementptr inbounds i16, ptr %14, i64 0
  store i16 %13, ptr %15, align 2, !tbaa !32
  %16 = load ptr, ptr %6, align 8, !tbaa !30
  %17 = getelementptr inbounds i16, ptr %16, i64 1
  call void @llvm.memset.p0.i64(ptr align 2 %17, i8 0, i64 14, i1 false)
  %18 = load i64, ptr %7, align 8, !tbaa !11
  %19 = load ptr, ptr %6, align 8, !tbaa !30
  %20 = getelementptr inbounds i16, ptr %19, i64 %18
  store ptr %20, ptr %6, align 8, !tbaa !30
  store i32 1, ptr %9, align 4, !tbaa !13
  br label %21

21:                                               ; preds = %26, %4
  %22 = load i32, ptr %9, align 4, !tbaa !13
  %23 = icmp slt i32 %22, 8
  br i1 %23, label %24, label %32

24:                                               ; preds = %21
  %25 = load ptr, ptr %6, align 8, !tbaa !30
  call void @llvm.memset.p0.i64(ptr align 2 %25, i8 0, i64 16, i1 false)
  br label %26

26:                                               ; preds = %24
  %27 = load i64, ptr %7, align 8, !tbaa !11
  %28 = load ptr, ptr %6, align 8, !tbaa !30
  %29 = getelementptr inbounds i16, ptr %28, i64 %27
  store ptr %29, ptr %6, align 8, !tbaa !30
  %30 = load i32, ptr %9, align 4, !tbaa !13
  %31 = add nsw i32 %30, 1
  store i32 %31, ptr %9, align 4, !tbaa !13
  br label %21, !llvm.loop !69

32:                                               ; preds = %21
  call void @llvm.lifetime.end.p0(i64 4, ptr %9) #4
  ret void
}