; Function Attrs: nofree norecurse nosync nounwind memory(argmem: readwrite) uwtable
define void @ff_ivi_put_dc_pixel_8x8(ptr noundef readonly captures(none) %0, ptr noundef writeonly captures(none) initializes((0, 16)) %1, i64 noundef %2, i32 noundef %3) local_unnamed_addr #2 {
  %5 = load i32, ptr %0, align 4, !tbaa !34
  %6 = trunc i32 %5 to i16
  store i16 %6, ptr %1, align 2, !tbaa !27
  %7 = getelementptr inbounds nuw i8, ptr %1, i64 2
  tail call void @llvm.memset.p0.i64(ptr noundef nonnull align 2 dereferenceable(14) %7, i8 0, i64 14, i1 false)
  br label %8

8:                                                ; preds = %4, %8
  %.011 = phi i32 [ 1, %4 ], [ %9, %8 ]
  %.pn10 = phi ptr [ %1, %4 ], [ %.09, %8 ]
  %.09 = getelementptr inbounds i16, ptr %.pn10, i64 %2
  tail call void @llvm.memset.p0.i64(ptr noundef nonnull align 2 dereferenceable(16) %.09, i8 0, i64 16, i1 false)
  %9 = add nuw nsw i32 %.011, 1
  %exitcond.not = icmp eq i32 %9, 8
  br i1 %exitcond.not, label %10, label %8, !llvm.loop !60

10:                                               ; preds = %8
  ret void
}